; Function Attrs: mustprogress uwtable
define internal fastcc void @_ZN24json11_internal_lightgbmL3escB5cxx11Ec(ptr dead_on_unwind noalias writable align 8 %0, i8 noundef signext %1) unnamed_addr #1 personality ptr @__gxx_personality_v0 {
  %3 = alloca [12 x i8], align 1
  %4 = alloca %"class.std::allocator", align 1
  %or.cond = icmp sgt i8 %1, 31
  br i1 %or.cond, label %5, label %8

5:                                                ; preds = %2
  %6 = zext nneg i8 %1 to i32
  %7 = call i32 (ptr, i64, ptr, ...) @snprintf(ptr noundef nonnull dereferenceable(1) %3, i64 noundef 12, ptr noundef nonnull @.str.43, i32 noundef %6, i32 noundef %6) #22
  br label %11

8:                                                ; preds = %2
  %9 = sext i8 %1 to i32
  %10 = call i32 (ptr, i64, ptr, ...) @snprintf(ptr noundef nonnull dereferenceable(1) %3, i64 noundef 12, ptr noundef nonnull @.str.44, i32 noundef %9) #22
  br label %11

11:                                               ; preds = %8, %5
  call void @_ZNSaIcEC1Ev(ptr noundef nonnull align 1 dereferenceable(1) %4) #22
  invoke void @_ZNSt7__cxx1112basic_stringIcSt11char_traitsIcESaIcEEC1EPKcRKS3_(ptr noundef nonnull align 8 dereferenceable(32) %0, ptr noundef nonnull %3, ptr noundef nonnull align 1 dereferenceable(1) %4)
          to label %12 unwind label %13

12:                                               ; preds = %11
  call void @_ZNSaIcED1Ev(ptr noundef nonnull align 1 dereferenceable(1) %4) #22
  ret void

13:                                               ; preds = %11
  %14 = landingpad { ptr, i32 }
          cleanup
  call void @_ZNSaIcED1Ev(ptr noundef nonnull align 1 dereferenceable(1) %4) #22
  resume { ptr, i32 } %14
}